target datalayout = "e-m:e-p270:32:32-p271:32:32-p272:64:64-i64:64-i128:128-f80:128-n8:16:32:64-S128"
target triple = "x86_64-unknown-linux-gnu"

%"class.std::__cxx11::basic_string" = type { %"struct.std::__cxx11::basic_string<char>::_Alloc_hider", i64, %union.anon }
%"struct.std::__cxx11::basic_string<char>::_Alloc_hider" = type { ptr }
%union.anon = type { i64, [8 x i8] }
%"class.base::HistogramBase" = type <{ ptr, %"class.std::__cxx11::basic_string", i32, [4 x i8] }>

; Function Attrs: mustprogress uwtable
define dso_local void @_ZN4base13HistogramBaseC2ERKNSt7__cxx1112basic_stringIcSt11char_traitsIcESaIcEEE(ptr noundef nonnull align 8 dereferenceable(44) %this, ptr noundef nonnull align 8 dereferenceable(32) %name) unnamed_addr #0 align 2 {
entry:
  %this.addr = alloca ptr, align 8
  %name.addr = alloca ptr, align 8
  store ptr %this, ptr %this.addr, align 8
  store ptr %name, ptr %name.addr, align 8
  %this1 = load ptr, ptr %this.addr, align 8
  store ptr getelementptr inbounds ({ [20 x ptr] }, ptr @_ZTVN4base13HistogramBaseE, i32 0, i32 0, i32 2), ptr %this1, align 8
  %histogram_name_ = getelementptr inbounds %"class.base::HistogramBase", ptr %this1, i32 0, i32 1
  %0 = load ptr, ptr %name.addr, align 8
  call void @_ZNSt7__cxx1112basic_stringIcSt11char_traitsIcESaIcEEC1ERKS4_(ptr noundef nonnull align 8 dereferenceable(32) %histogram_name_, ptr noundef nonnull align 8 dereferenceable(32) %0)
  %flags_ = getelementptr inbounds %"class.base::HistogramBase", ptr %this1, i32 0, i32 2
  store i32 0, ptr %flags_, align 8
  ret void
}