; Function Attrs: mustprogress uwtable
define dso_local void @_ZN4base13HistogramBaseC2ERKNSt7__cxx1112basic_stringIcSt11char_traitsIcESaIcEEE(ptr noundef nonnull align 8 dereferenceable(44) %this, ptr noundef nonnull align 8 dereferenceable(32) %name) unnamed_addr #0 align 2 {
entry:
  store ptr getelementptr inbounds ({ [20 x ptr] }, ptr @_ZTVN4base13HistogramBaseE, i64 0, i32 0, i64 2), ptr %this, align 8
  %histogram_name_ = getelementptr inbounds i8, ptr %this, i64 8
  tail call void @_ZNSt7__cxx1112basic_stringIcSt11char_traitsIcESaIcEEC1ERKS4_(ptr noundef nonnull align 8 dereferenceable(32) %histogram_name_, ptr noundef nonnull align 8 dereferenceable(32) %name)
  %flags_ = getelementptr inbounds i8, ptr %this, i64 40
  store i32 0, ptr %flags_, align 8
  ret void
}